target datalayout = "e-m:e-p270:32:32-p271:32:32-p272:64:64-i64:64-i128:128-f80:128-n8:16:32:64-S128"
target triple = "x86_64-pc-linux-gnu"

; Function Attrs: nounwind uwtable
define internal ptr @git_attr_val_system(i32 noundef %0) #0 {
  %2 = alloca ptr, align 8
  %3 = alloca i32, align 4
  %4 = alloca ptr, align 8
  store i32 %0, ptr %3, align 4, !tbaa !4
  %5 = call i32 @git_attr_system_is_enabled()
  %6 = icmp ne i32 %5, 0
  br i1 %6, label %7, label %14

7:                                                ; preds = %1
  call void @llvm.lifetime.start.p0(i64 8, ptr %4) #9
  %8 = call ptr @git_attr_system_file()
  %9 = call ptr @xstrdup(ptr noundef %8)
  store ptr %9, ptr %4, align 8, !tbaa !11
  %10 = load ptr, ptr %4, align 8, !tbaa !11
  %11 = load ptr, ptr %4, align 8, !tbaa !11
  %12 = call i32 @normalize_path_copy(ptr noundef %10, ptr noundef %11)
  %13 = load ptr, ptr %4, align 8, !tbaa !11
  store ptr %13, ptr %2, align 8
  call void @llvm.lifetime.end.p0(i64 8, ptr %4) #9
  br label %15

14:                                               ; preds = %1
  store ptr null, ptr %2, align 8
  br label %15

15:                                               ; preds = %14, %7
  %16 = load ptr, ptr %2, align 8
  ret ptr %16
}