; Function Attrs: nounwind uwtable
define internal noundef ptr @git_attr_val_system(i32 %0) #0 {
  %2 = tail call i32 @git_attr_system_is_enabled() #10
  %.not = icmp eq i32 %2, 0
  br i1 %.not, label %7, label %3

3:                                                ; preds = %1
  %4 = tail call ptr @git_attr_system_file() #10
  %5 = tail call ptr @xstrdup(ptr noundef %4) #10
  %6 = tail call i32 @normalize_path_copy(ptr noundef %5, ptr noundef %5) #10
  br label %7

7:                                                ; preds = %1, %3
  %.0 = phi ptr [ %5, %3 ], [ null, %1 ]
  ret ptr %.0
}